target datalayout = "e-m:e-p270:32:32-p271:32:32-p272:64:64-i64:64-i128:128-f80:128-n8:16:32:64-S128"
target triple = "x86_64-pc-linux-gnu"

%"class.std::__cxx11::basic_string" = type { %"struct.std::__cxx11::basic_string<char>::_Alloc_hider", i64, %union.anon }
%"struct.std::__cxx11::basic_string<char>::_Alloc_hider" = type { ptr }
%union.anon = type { i64, [8 x i8] }
%"class.tinygltf::Value" = type <{ i32, i32, double, %"class.std::__cxx11::basic_string", %"class.std::vector", %"class.std::vector.3", %"class.std::map", i8, [7 x i8] }>
%"class.std::vector" = type { %"struct.std::_Vector_base" }
%"struct.std::_Vector_base" = type { %"struct.std::_Vector_base<unsigned char, std::allocator<unsigned char>>::_Vector_impl" }
%"struct.std::_Vector_base<unsigned char, std::allocator<unsigned char>>::_Vector_impl" = type { %"struct.std::_Vector_base<unsigned char, std::allocator<unsigned char>>::_Vector_impl_data" }
%"struct.std::_Vector_base<unsigned char, std::allocator<unsigned char>>::_Vector_impl_data" = type { ptr, ptr, ptr }
%"class.std::vector.3" = type { %"struct.std::_Vector_base.4" }
%"struct.std::_Vector_base.4" = type { %"struct.std::_Vector_base<tinygltf::Value, std::allocator<tinygltf::Value>>::_Vector_impl" }
%"struct.std::_Vector_base<tinygltf::Value, std::allocator<tinygltf::Value>>::_Vector_impl" = type { %"struct.std::_Vector_base<tinygltf::Value, std::allocator<tinygltf::Value>>::_Vector_impl_data" }
%"struct.std::_Vector_base<tinygltf::Value, std::allocator<tinygltf::Value>>::_Vector_impl_data" = type { ptr, ptr, ptr }
%"class.std::map" = type { %"class.std::_Rb_tree" }
%"class.std::_Rb_tree" = type { %"struct.std::_Rb_tree<std::__cxx11::basic_string<char>, std::pair<const std::__cxx11::basic_string<char>, tinygltf::Value>, std::_Select1st<std::pair<const std::__cxx11::basic_string<char>, tinygltf::Value>>, std::less<std::__cxx11::basic_string<char>>>::_Rb_tree_impl" }
%"struct.std::_Rb_tree<std::__cxx11::basic_string<char>, std::pair<const std::__cxx11::basic_string<char>, tinygltf::Value>, std::_Select1st<std::pair<const std::__cxx11::basic_string<char>, tinygltf::Value>>, std::less<std::__cxx11::basic_string<char>>>::_Rb_tree_impl" = type { %"struct.std::_Rb_tree_key_compare", %"struct.std::_Rb_tree_header" }
%"struct.std::_Rb_tree_key_compare" = type { %"struct.std::less" }
%"struct.std::less" = type { i8 }
%"struct.std::_Rb_tree_header" = type { %"struct.std::_Rb_tree_node_base", i64 }
%"struct.std::_Rb_tree_node_base" = type { i32, ptr, ptr, ptr }
%"struct.tinygltf::Sampler" = type { %"class.std::__cxx11::basic_string", i32, i32, i32, i32, i32, [4 x i8], %"class.tinygltf::Value" }

; Function Attrs: noreturn nounwind uwtable
define linkonce_odr hidden void @__clang_call_terminate(ptr noundef %0) #9 comdat {
  %2 = call ptr @__cxa_begin_catch(ptr %0) #3
  call void @_ZSt9terminatev() #24
  unreachable
}

; Function Attrs: mustprogress nounwind uwtable
define linkonce_odr dso_local noundef i32 @_ZNSt11char_traitsIcE7compareEPKcS2_m(ptr noundef %0, ptr noundef %1, i64 noundef %2) #5 comdat align 2 {
  %4 = alloca i32, align 4
  %5 = alloca ptr, align 8
  %6 = alloca ptr, align 8
  %7 = alloca i64, align 8
  store ptr %0, ptr %5, align 8
  store ptr %1, ptr %6, align 8
  store i64 %2, ptr %7, align 8
  %8 = load i64, ptr %7, align 8
  %9 = icmp eq i64 %8, 0
  br i1 %9, label %10, label %11

10:                                               ; preds = %3
  store i32 0, ptr %4, align 4
  br label %16

11:                                               ; preds = %3
  %12 = load ptr, ptr %5, align 8
  %13 = load ptr, ptr %6, align 8
  %14 = load i64, ptr %7, align 8
  %15 = call i32 @memcmp(ptr noundef %12, ptr noundef %13, i64 noundef %14) #3
  store i32 %15, ptr %4, align 4
  br label %16

16:                                               ; preds = %11, %10
  %17 = load i32, ptr %4, align 4
  ret i32 %17
}

; Function Attrs: mustprogress nounwind uwtable
define linkonce_odr dso_local noundef zeroext i1 @_ZSteqIcEN9__gnu_cxx11__enable_ifIXsr9__is_charIT_EE7__valueEbE6__typeERKNSt7__cxx1112basic_stringIS2_St11char_traitsIS2_ESaIS2_EEESC_(ptr noundef nonnull align 8 dereferenceable(32) %0, ptr noundef nonnull align 8 dereferenceable(32) %1) #5 comdat personality ptr @__gxx_personality_v0 {
  %3 = alloca ptr, align 8
  %4 = alloca ptr, align 8
  store ptr %0, ptr %3, align 8
  store ptr %1, ptr %4, align 8
  %5 = load ptr, ptr %3, align 8
  %6 = call noundef i64 @_ZNKSt7__cxx1112basic_stringIcSt11char_traitsIcESaIcEE4sizeEv(ptr noundef nonnull align 8 dereferenceable(32) %5) #3
  %7 = load ptr, ptr %4, align 8
  %8 = call noundef i64 @_ZNKSt7__cxx1112basic_stringIcSt11char_traitsIcESaIcEE4sizeEv(ptr noundef nonnull align 8 dereferenceable(32) %7) #3
  %9 = icmp eq i64 %6, %8
  br i1 %9, label %10, label %21

10:                                               ; preds = %2
  %11 = load ptr, ptr %3, align 8
  %12 = call noundef ptr @_ZNKSt7__cxx1112basic_stringIcSt11char_traitsIcESaIcEE4dataEv(ptr noundef nonnull align 8 dereferenceable(32) %11) #3
  %13 = load ptr, ptr %4, align 8
  %14 = call noundef ptr @_ZNKSt7__cxx1112basic_stringIcSt11char_traitsIcESaIcEE4dataEv(ptr noundef nonnull align 8 dereferenceable(32) %13) #3
  %15 = load ptr, ptr %3, align 8
  %16 = call noundef i64 @_ZNKSt7__cxx1112basic_stringIcSt11char_traitsIcESaIcEE4sizeEv(ptr noundef nonnull align 8 dereferenceable(32) %15) #3
  %17 = invoke noundef i32 @_ZNSt11char_traitsIcE7compareEPKcS2_m(ptr noundef %12, ptr noundef %14, i64 noundef %16)
          to label %18 unwind label %23

18:                                               ; preds = %10
  %19 = icmp ne i32 %17, 0
  %20 = xor i1 %19, true
  br label %21

21:                                               ; preds = %18, %2
  %22 = phi i1 [ false, %2 ], [ %20, %18 ]
  ret i1 %22

23:                                               ; preds = %10
  %24 = landingpad { ptr, i32 }
          catch ptr null
  %25 = extractvalue { ptr, i32 } %24, 0
  call void @__clang_call_terminate(ptr %25) #24
  unreachable
}

; Function Attrs: mustprogress uwtable
define dso_local noundef zeroext i1 @_ZNK8tinygltf5ValueeqERKS0_(ptr noundef nonnull align 8 dereferenceable(145) %0, ptr noundef nonnull align 8 dereferenceable(145) %1) #4 align 2 {
  %3 = alloca ptr, align 8
  %4 = alloca ptr, align 8
  store ptr %0, ptr %3, align 8
  store ptr %1, ptr %4, align 8
  %5 = load ptr, ptr %3, align 8
  %6 = load ptr, ptr %4, align 8
  %7 = call noundef zeroext i1 @_ZN8tinygltfL6EqualsERKNS_5ValueES2_(ptr noundef nonnull align 8 dereferenceable(145) %5, ptr noundef nonnull align 8 dereferenceable(145) %6)
  ret i1 %7
}

; Function Attrs: mustprogress uwtable
define dso_local noundef zeroext i1 @_ZNK8tinygltf7SamplereqERKS0_(ptr noundef nonnull align 8 dereferenceable(208) %0, ptr noundef nonnull align 8 dereferenceable(208) %1) #4 align 2 {
  %3 = alloca ptr, align 8
  %4 = alloca ptr, align 8
  store ptr %0, ptr %3, align 8
  store ptr %1, ptr %4, align 8
  %5 = load ptr, ptr %3, align 8
  %6 = getelementptr inbounds %"struct.tinygltf::Sampler", ptr %5, i32 0, i32 7
  %7 = load ptr, ptr %4, align 8
  %8 = getelementptr inbounds %"struct.tinygltf::Sampler", ptr %7, i32 0, i32 7
  %9 = call noundef zeroext i1 @_ZNK8tinygltf5ValueeqERKS0_(ptr noundef nonnull align 8 dereferenceable(145) %6, ptr noundef nonnull align 8 dereferenceable(145) %8)
  br i1 %9, label %10, label %50

10:                                               ; preds = %2
  %11 = getelementptr inbounds %"struct.tinygltf::Sampler", ptr %5, i32 0, i32 2
  %12 = load i32, ptr %11, align 4
  %13 = load ptr, ptr %4, align 8
  %14 = getelementptr inbounds %"struct.tinygltf::Sampler", ptr %13, i32 0, i32 2
  %15 = load i32, ptr %14, align 4
  %16 = icmp eq i32 %12, %15
  br i1 %16, label %17, label %50

17:                                               ; preds = %10
  %18 = getelementptr inbounds %"struct.tinygltf::Sampler", ptr %5, i32 0, i32 1
  %19 = load i32, ptr %18, align 8
  %20 = load ptr, ptr %4, align 8
  %21 = getelementptr inbounds %"struct.tinygltf::Sampler", ptr %20, i32 0, i32 1
  %22 = load i32, ptr %21, align 8
  %23 = icmp eq i32 %19, %22
  br i1 %23, label %24, label %50

24:                                               ; preds = %17
  %25 = getelementptr inbounds %"struct.tinygltf::Sampler", ptr %5, i32 0, i32 0
  %26 = load ptr, ptr %4, align 8
  %27 = getelementptr inbounds %"struct.tinygltf::Sampler", ptr %26, i32 0, i32 0
  %28 = call noundef zeroext i1 @_ZSteqIcEN9__gnu_cxx11__enable_ifIXsr9__is_charIT_EE7__valueEbE6__typeERKNSt7__cxx1112basic_stringIS2_St11char_traitsIS2_ESaIS2_EEESC_(ptr noundef nonnull align 8 dereferenceable(32) %25, ptr noundef nonnull align 8 dereferenceable(32) %27) #3
  br i1 %28, label %29, label %50

29:                                               ; preds = %24
  %30 = getelementptr inbounds %"struct.tinygltf::Sampler", ptr %5, i32 0, i32 5
  %31 = load i32, ptr %30, align 8
  %32 = load ptr, ptr %4, align 8
  %33 = getelementptr inbounds %"struct.tinygltf::Sampler", ptr %32, i32 0, i32 5
  %34 = load i32, ptr %33, align 8
  %35 = icmp eq i32 %31, %34
  br i1 %35, label %36, label %50

36:                                               ; preds = %29
  %37 = getelementptr inbounds %"struct.tinygltf::Sampler", ptr %5, i32 0, i32 3
  %38 = load i32, ptr %37, align 8
  %39 = load ptr, ptr %4, align 8
  %40 = getelementptr inbounds %"struct.tinygltf::Sampler", ptr %39, i32 0, i32 3
  %41 = load i32, ptr %40, align 8
  %42 = icmp eq i32 %38, %41
  br i1 %42, label %43, label %50

43:                                               ; preds = %36
  %44 = getelementptr inbounds %"struct.tinygltf::Sampler", ptr %5, i32 0, i32 4
  %45 = load i32, ptr %44, align 4
  %46 = load ptr, ptr %4, align 8
  %47 = getelementptr inbounds %"struct.tinygltf::Sampler", ptr %46, i32 0, i32 4
  %48 = load i32, ptr %47, align 4
  %49 = icmp eq i32 %45, %48
  br label %50

50:                                               ; preds = %43, %36, %29, %24, %17, %10, %2
  %51 = phi i1 [ false, %36 ], [ false, %29 ], [ false, %24 ], [ false, %17 ], [ false, %10 ], [ false, %2 ], [ %49, %43 ]
  ret i1 %51
}